; Function Attrs: mustprogress uwtable
define hidden noundef i32 @_ZN4cvc58internal6theory11quantifiers13TermGenerator22getGeneralizationDepthEPNS2_10TermGenEnvE(ptr noundef nonnull align 8 dereferenceable(112) %0, ptr noundef %1) local_unnamed_addr #3 align 2 personality ptr @__gxx_personality_v0 {
  %3 = alloca %"class.std::map.1057", align 8
  call void @llvm.lifetime.start.p0(i64 48, ptr nonnull %3) #29
  %4 = getelementptr inbounds nuw i8, ptr %3, i64 8
  store i32 0, ptr %4, align 8, !tbaa !60
  %5 = getelementptr inbounds nuw i8, ptr %3, i64 16
  store ptr null, ptr %5, align 8, !tbaa !21
  %6 = getelementptr inbounds nuw i8, ptr %3, i64 24
  store ptr %4, ptr %6, align 8, !tbaa !35
  %7 = getelementptr inbounds nuw i8, ptr %3, i64 32
  store ptr %4, ptr %7, align 8, !tbaa !61
  %8 = getelementptr inbounds nuw i8, ptr %3, i64 40
  store i64 0, ptr %8, align 8, !tbaa !62
  %9 = invoke noundef i32 @_ZN4cvc58internal6theory11quantifiers13TermGenerator28calculateGeneralizationDepthEPNS2_10TermGenEnvERSt3mapINS0_8TypeNodeESt6vectorIiSaIiEESt4lessIS7_ESaISt4pairIKS7_SA_EEE(ptr noundef nonnull align 8 dereferenceable(112) %0, ptr noundef %1, ptr noundef nonnull align 8 dereferenceable(48) %3)
          to label %10 unwind label %15

10:                                               ; preds = %2
  %11 = load ptr, ptr %5, align 8, !tbaa !21
  invoke void @_ZNSt8_Rb_treeIN4cvc58internal8TypeNodeESt4pairIKS2_St6vectorIiSaIiEEESt10_Select1stIS8_ESt4lessIS2_ESaIS8_EE8_M_eraseEPSt13_Rb_tree_nodeIS8_E(ptr noundef nonnull align 8 dereferenceable(48) %3, ptr noundef %11)
          to label %_ZNSt3mapIN4cvc58internal8TypeNodeESt6vectorIiSaIiEESt4lessIS2_ESaISt4pairIKS2_S5_EEED2Ev.exit unwind label %12

12:                                               ; preds = %10
  %13 = landingpad { ptr, i32 }
          catch ptr null
  %14 = extractvalue { ptr, i32 } %13, 0
  call void @__clang_call_terminate(ptr %14) #30
  unreachable

_ZNSt3mapIN4cvc58internal8TypeNodeESt6vectorIiSaIiEESt4lessIS2_ESaISt4pairIKS2_S5_EEED2Ev.exit: ; preds = %10
  call void @llvm.lifetime.end.p0(i64 48, ptr nonnull %3) #29
  ret i32 %9

15:                                               ; preds = %2
  %16 = landingpad { ptr, i32 }
          cleanup
  call void @_ZNSt3mapIN4cvc58internal8TypeNodeESt6vectorIiSaIiEESt4lessIS2_ESaISt4pairIKS2_S5_EEED2Ev(ptr noundef nonnull align 8 dereferenceable(48) %3) #29
  call void @llvm.lifetime.end.p0(i64 48, ptr nonnull %3) #29
  resume { ptr, i32 } %16
}